target datalayout = "e-m:e-p270:32:32-p271:32:32-p272:64:64-i64:64-i128:128-f80:128-n8:16:32:64-S128"
target triple = "x86_64-unknown-linux-gnu"

%struct.b2JointDef = type <{ i32, [4 x i8], %struct.b2JointUserData, ptr, ptr, i8, [7 x i8] }>
%struct.b2JointUserData = type { i64 }
%class.b2Joint = type { ptr, i32, ptr, ptr, %struct.b2JointEdge, %struct.b2JointEdge, ptr, ptr, i32, i8, i8, %struct.b2JointUserData }
%struct.b2JointEdge = type { ptr, ptr, ptr, ptr }

; Function Attrs: mustprogress nounwind uwtable
define linkonce_odr hidden void @_ZN15b2JointUserDataC2Ev(ptr noundef nonnull align 8 dereferenceable(8) %this) unnamed_addr #1 comdat align 2 {
entry:
  %this.addr = alloca ptr, align 8
  store ptr %this, ptr %this.addr, align 8
  %this1 = load ptr, ptr %this.addr, align 8
  %pointer = getelementptr inbounds %struct.b2JointUserData, ptr %this1, i32 0, i32 0
  store i64 0, ptr %pointer, align 8
  ret void
}

; Function Attrs: mustprogress uwtable
define void @_ZN7b2JointC2EPK10b2JointDef(ptr noundef nonnull align 8 dereferenceable(128) %this, ptr noundef %def) unnamed_addr #0 align 2 {
entry:
  %this.addr = alloca ptr, align 8
  %def.addr = alloca ptr, align 8
  store ptr %this, ptr %this.addr, align 8
  store ptr %def, ptr %def.addr, align 8
  %this1 = load ptr, ptr %this.addr, align 8
  store ptr getelementptr inbounds ({ [14 x ptr] }, ptr @_ZTV7b2Joint, i32 0, i32 0, i32 2), ptr %this1, align 8
  %m_userData = getelementptr inbounds %class.b2Joint, ptr %this1, i32 0, i32 11
  call void @_ZN15b2JointUserDataC2Ev(ptr noundef nonnull align 8 dereferenceable(8) %m_userData)
  %0 = load ptr, ptr %def.addr, align 8
  %type = getelementptr inbounds %struct.b2JointDef, ptr %0, i32 0, i32 0
  %1 = load i32, ptr %type, align 8
  %m_type = getelementptr inbounds %class.b2Joint, ptr %this1, i32 0, i32 1
  store i32 %1, ptr %m_type, align 8
  %m_prev = getelementptr inbounds %class.b2Joint, ptr %this1, i32 0, i32 2
  store ptr null, ptr %m_prev, align 8
  %m_next = getelementptr inbounds %class.b2Joint, ptr %this1, i32 0, i32 3
  store ptr null, ptr %m_next, align 8
  %2 = load ptr, ptr %def.addr, align 8
  %bodyA = getelementptr inbounds %struct.b2JointDef, ptr %2, i32 0, i32 3
  %3 = load ptr, ptr %bodyA, align 8
  %m_bodyA = getelementptr inbounds %class.b2Joint, ptr %this1, i32 0, i32 6
  store ptr %3, ptr %m_bodyA, align 8
  %4 = load ptr, ptr %def.addr, align 8
  %bodyB = getelementptr inbounds %struct.b2JointDef, ptr %4, i32 0, i32 4
  %5 = load ptr, ptr %bodyB, align 8
  %m_bodyB = getelementptr inbounds %class.b2Joint, ptr %this1, i32 0, i32 7
  store ptr %5, ptr %m_bodyB, align 8
  %m_index = getelementptr inbounds %class.b2Joint, ptr %this1, i32 0, i32 8
  store i32 0, ptr %m_index, align 8
  %6 = load ptr, ptr %def.addr, align 8
  %collideConnected = getelementptr inbounds %struct.b2JointDef, ptr %6, i32 0, i32 5
  %7 = load i8, ptr %collideConnected, align 8
  %tobool = trunc i8 %7 to i1
  %m_collideConnected = getelementptr inbounds %class.b2Joint, ptr %this1, i32 0, i32 10
  %frombool = zext i1 %tobool to i8
  store i8 %frombool, ptr %m_collideConnected, align 1
  %m_islandFlag = getelementptr inbounds %class.b2Joint, ptr %this1, i32 0, i32 9
  store i8 0, ptr %m_islandFlag, align 4
  %8 = load ptr, ptr %def.addr, align 8
  %userData = getelementptr inbounds %struct.b2JointDef, ptr %8, i32 0, i32 2
  %m_userData2 = getelementptr inbounds %class.b2Joint, ptr %this1, i32 0, i32 11
  call void @llvm.memcpy.p0.p0.i64(ptr align 8 %m_userData2, ptr align 8 %userData, i64 8, i1 false)
  %m_edgeA3 = getelementptr inbounds %class.b2Joint, ptr %this1, i32 0, i32 4
  %joint = getelementptr inbounds %struct.b2JointEdge, ptr %m_edgeA3, i32 0, i32 1
  store ptr null, ptr %joint, align 8
  %m_edgeA4 = getelementptr inbounds %class.b2Joint, ptr %this1, i32 0, i32 4
  %other = getelementptr inbounds %struct.b2JointEdge, ptr %m_edgeA4, i32 0, i32 0
  store ptr null, ptr %other, align 8
  %m_edgeA5 = getelementptr inbounds %class.b2Joint, ptr %this1, i32 0, i32 4
  %prev = getelementptr inbounds %struct.b2JointEdge, ptr %m_edgeA5, i32 0, i32 2
  store ptr null, ptr %prev, align 8
  %m_edgeA6 = getelementptr inbounds %class.b2Joint, ptr %this1, i32 0, i32 4
  %next = getelementptr inbounds %struct.b2JointEdge, ptr %m_edgeA6, i32 0, i32 3
  store ptr null, ptr %next, align 8
  %m_edgeB7 = getelementptr inbounds %class.b2Joint, ptr %this1, i32 0, i32 5
  %joint8 = getelementptr inbounds %struct.b2JointEdge, ptr %m_edgeB7, i32 0, i32 1
  store ptr null, ptr %joint8, align 8
  %m_edgeB9 = getelementptr inbounds %class.b2Joint, ptr %this1, i32 0, i32 5
  %other10 = getelementptr inbounds %struct.b2JointEdge, ptr %m_edgeB9, i32 0, i32 0
  store ptr null, ptr %other10, align 8
  %m_edgeB11 = getelementptr inbounds %class.b2Joint, ptr %this1, i32 0, i32 5
  %prev12 = getelementptr inbounds %struct.b2JointEdge, ptr %m_edgeB11, i32 0, i32 2
  store ptr null, ptr %prev12, align 8
  %m_edgeB13 = getelementptr inbounds %class.b2Joint, ptr %this1, i32 0, i32 5
  %next14 = getelementptr inbounds %struct.b2JointEdge, ptr %m_edgeB13, i32 0, i32 3
  store ptr null, ptr %next14, align 8
  ret void
}