; Function Attrs: mustprogress nofree norecurse nosync nounwind willreturn memory(argmem: readwrite) uwtable
define void @_ZN7b2JointC2EPK10b2JointDef(ptr nocapture noundef nonnull writeonly align 8 dereferenceable(128) %this, ptr nocapture noundef readonly %def) unnamed_addr #0 align 2 {
entry:
  store ptr getelementptr inbounds ({ [14 x ptr] }, ptr @_ZTV7b2Joint, i64 0, i32 0, i64 2), ptr %this, align 8
  %m_userData = getelementptr inbounds i8, ptr %this, i64 120
  store i64 0, ptr %m_userData, align 8
  %0 = load i32, ptr %def, align 8
  %m_type = getelementptr inbounds i8, ptr %this, i64 8
  store i32 %0, ptr %m_type, align 8
  %m_prev = getelementptr inbounds i8, ptr %this, i64 16
  %bodyA = getelementptr inbounds i8, ptr %def, i64 16
  tail call void @llvm.memset.p0.i64(ptr noundef nonnull align 8 dereferenceable(16) %m_prev, i8 0, i64 16, i1 false)
  %1 = load ptr, ptr %bodyA, align 8
  %m_bodyA = getelementptr inbounds i8, ptr %this, i64 96
  store ptr %1, ptr %m_bodyA, align 8
  %bodyB = getelementptr inbounds i8, ptr %def, i64 24
  %2 = load ptr, ptr %bodyB, align 8
  %m_bodyB = getelementptr inbounds i8, ptr %this, i64 104
  store ptr %2, ptr %m_bodyB, align 8
  %m_index = getelementptr inbounds i8, ptr %this, i64 112
  store i32 0, ptr %m_index, align 8
  %collideConnected = getelementptr inbounds i8, ptr %def, i64 32
  %3 = load i8, ptr %collideConnected, align 8
  %4 = and i8 %3, 1
  %m_collideConnected = getelementptr inbounds i8, ptr %this, i64 117
  store i8 %4, ptr %m_collideConnected, align 1
  %m_islandFlag = getelementptr inbounds i8, ptr %this, i64 116
  store i8 0, ptr %m_islandFlag, align 4
  %userData = getelementptr inbounds i8, ptr %def, i64 8
  %5 = load i64, ptr %userData, align 8
  store i64 %5, ptr %m_userData, align 8
  %m_edgeA3 = getelementptr inbounds i8, ptr %this, i64 32
  tail call void @llvm.memset.p0.i64(ptr noundef nonnull align 8 dereferenceable(64) %m_edgeA3, i8 0, i64 64, i1 false)
  ret void
}